target datalayout = "e-m:e-p270:32:32-p271:32:32-p272:64:64-i64:64-i128:128-f80:128-n8:16:32:64-S128"
target triple = "x86_64-pc-linux-gnu"

%class.ThreadShadow = type <{ ptr, ptr, ptr, i32, [4 x i8] }>
%class.Handle = type { ptr }
%class.ResourceMark = type { %class.ResourceMarkImpl }
%class.ResourceMarkImpl = type { ptr, %"class.ResourceArea::SavedState" }
%"class.ResourceArea::SavedState" = type { ptr, ptr, ptr, i64 }
%class.SignatureStream = type { ptr, i32, i32, i32, i32, i8, i32, ptr, ptr }
%class.Thread = type { %class.ThreadShadow.base, i64, [43 x i64], ptr, ptr, i32, ptr, i64, i64, %class.ThreadLocalAllocBuffer, i64, %class.ThreadHeapSampler, %class.ThreadStatisticalInfo, %class.JfrThreadLocal, ptr, ptr, ptr, ptr, ptr, ptr, i64, i32, i32, ptr, i32, i32, i32, i32, i8, ptr }
%class.ThreadShadow.base = type <{ ptr, ptr, ptr, i32 }>
%class.ThreadLocalAllocBuffer = type <{ ptr, ptr, ptr, ptr, ptr, i64, i64, i64, i64, i32, i32, i32, i32, i64, %class.AdaptiveWeightedAverage, [4 x i8] }>
%class.AdaptiveWeightedAverage = type { float, i32, i32, i8, float }
%class.ThreadHeapSampler = type { i64 }
%class.ThreadStatisticalInfo = type { i64, i64 }
%class.JfrThreadLocal = type <{ ptr, ptr, ptr, ptr, ptr, ptr, ptr, ptr, ptr, ptr, %class.RefCountHandle, i64, i64, i64, i64, i64, i64, i64, i64, i64, i64, i64, i32, i32, i32, i16, i8, i8, i8, i8, i8, [5 x i8] }>
%class.RefCountHandle = type { ptr }
%class.Symbol = type { i32, i16, [2 x i8] }
%class.Arena = type { i8, i8, i64, ptr, ptr, ptr, ptr }
%class.Chunk = type { ptr, i64 }

@_ZN8Universe17_typeArrayKlassesE = external global [12 x ptr], align 16

; Function Attrs: mustprogress nounwind uwtable
define linkonce_odr hidden noundef ptr @_ZNK5Chunk4nextEv(ptr noundef nonnull align 8 dereferenceable(16) %0) #1 comdat align 2 {
  %2 = alloca ptr, align 8
  store ptr %0, ptr %2, align 8
  %3 = load ptr, ptr %2, align 8
  %4 = getelementptr inbounds %class.Chunk, ptr %3, i32 0, i32 0
  %5 = load ptr, ptr %4, align 8
  ret ptr %5
}

; Function Attrs: mustprogress nounwind uwtable
define linkonce_odr hidden noundef i64 @_ZNK5Arena13size_in_bytesEv(ptr noundef nonnull align 8 dereferenceable(48) %0) #1 comdat align 2 {
  %2 = alloca ptr, align 8
  store ptr %0, ptr %2, align 8
  %3 = load ptr, ptr %2, align 8
  %4 = getelementptr inbounds %class.Arena, ptr %3, i32 0, i32 2
  %5 = load i64, ptr %4, align 8
  ret i64 %5
}

; Function Attrs: mustprogress nounwind uwtable
define linkonce_odr hidden void @_ZN12ResourceArea11rollback_toERKNS_10SavedStateE(ptr noundef nonnull align 8 dereferenceable(48) %0, ptr noundef nonnull align 8 dereferenceable(32) %1) #1 comdat align 2 {
  %3 = alloca ptr, align 8
  %4 = alloca ptr, align 8
  %5 = alloca ptr, align 8
  store ptr %0, ptr %3, align 8
  store ptr %1, ptr %4, align 8
  %6 = load ptr, ptr %3, align 8
  %7 = load ptr, ptr %4, align 8
  %8 = getelementptr inbounds %"class.ResourceArea::SavedState", ptr %7, i32 0, i32 0
  %9 = load ptr, ptr %8, align 8
  %10 = call noundef ptr @_ZNK5Chunk4nextEv(ptr noundef nonnull align 8 dereferenceable(16) %9)
  %11 = icmp ne ptr %10, null
  br i1 %11, label %12, label %19

12:                                               ; preds = %2
  %13 = load ptr, ptr %4, align 8
  %14 = getelementptr inbounds %"class.ResourceArea::SavedState", ptr %13, i32 0, i32 3
  %15 = load i64, ptr %14, align 8
  call void @_ZN5Arena17set_size_in_bytesEm(ptr noundef nonnull align 8 dereferenceable(48) %6, i64 noundef %15)
  %16 = load ptr, ptr %4, align 8
  %17 = getelementptr inbounds %"class.ResourceArea::SavedState", ptr %16, i32 0, i32 0
  %18 = load ptr, ptr %17, align 8
  call void @_ZN5Chunk9next_chopEPS_(ptr noundef %18)
  br label %20

19:                                               ; preds = %2
  br label %20

20:                                               ; preds = %19, %12
  %21 = getelementptr inbounds %class.Arena, ptr %6, i32 0, i32 5
  %22 = load ptr, ptr %21, align 8
  %23 = load ptr, ptr %4, align 8
  %24 = getelementptr inbounds %"class.ResourceArea::SavedState", ptr %23, i32 0, i32 1
  %25 = load ptr, ptr %24, align 8
  %26 = icmp ne ptr %22, %25
  br i1 %26, label %27, label %42

27:                                               ; preds = %20
  %28 = getelementptr inbounds %class.Arena, ptr %6, i32 0, i32 5
  %29 = load ptr, ptr %28, align 8
  store ptr %29, ptr %5, align 8
  %30 = load ptr, ptr %4, align 8
  %31 = getelementptr inbounds %"class.ResourceArea::SavedState", ptr %30, i32 0, i32 0
  %32 = load ptr, ptr %31, align 8
  %33 = getelementptr inbounds %class.Arena, ptr %6, i32 0, i32 4
  store ptr %32, ptr %33, align 8
  %34 = load ptr, ptr %4, align 8
  %35 = getelementptr inbounds %"class.ResourceArea::SavedState", ptr %34, i32 0, i32 1
  %36 = load ptr, ptr %35, align 8
  %37 = getelementptr inbounds %class.Arena, ptr %6, i32 0, i32 5
  store ptr %36, ptr %37, align 8
  %38 = load ptr, ptr %4, align 8
  %39 = getelementptr inbounds %"class.ResourceArea::SavedState", ptr %38, i32 0, i32 2
  %40 = load ptr, ptr %39, align 8
  %41 = getelementptr inbounds %class.Arena, ptr %6, i32 0, i32 6
  store ptr %40, ptr %41, align 8
  br label %43

42:                                               ; preds = %20
  br label %43

43:                                               ; preds = %42, %27
  ret void
}

; Function Attrs: mustprogress nounwind uwtable
define linkonce_odr hidden void @_ZN12ResourceArea14activate_stateERKNS_10SavedStateE(ptr noundef nonnull align 8 dereferenceable(48) %0, ptr noundef nonnull align 8 dereferenceable(32) %1) #1 comdat align 2 {
  %3 = alloca ptr, align 8
  %4 = alloca ptr, align 8
  store ptr %0, ptr %3, align 8
  store ptr %1, ptr %4, align 8
  ret void
}

; Function Attrs: mustprogress nounwind uwtable
define linkonce_odr hidden void @_ZN12ResourceArea10SavedStateC2EPS_(ptr noundef nonnull align 8 dereferenceable(32) %0, ptr noundef %1) unnamed_addr #1 comdat align 2 {
  %3 = alloca ptr, align 8
  %4 = alloca ptr, align 8
  store ptr %0, ptr %3, align 8
  store ptr %1, ptr %4, align 8
  %5 = load ptr, ptr %3, align 8
  %6 = getelementptr inbounds %"class.ResourceArea::SavedState", ptr %5, i32 0, i32 0
  %7 = load ptr, ptr %4, align 8
  %8 = getelementptr inbounds %class.Arena, ptr %7, i32 0, i32 4
  %9 = load ptr, ptr %8, align 8
  store ptr %9, ptr %6, align 8
  %10 = getelementptr inbounds %"class.ResourceArea::SavedState", ptr %5, i32 0, i32 1
  %11 = load ptr, ptr %4, align 8
  %12 = getelementptr inbounds %class.Arena, ptr %11, i32 0, i32 5
  %13 = load ptr, ptr %12, align 8
  store ptr %13, ptr %10, align 8
  %14 = getelementptr inbounds %"class.ResourceArea::SavedState", ptr %5, i32 0, i32 2
  %15 = load ptr, ptr %4, align 8
  %16 = getelementptr inbounds %class.Arena, ptr %15, i32 0, i32 6
  %17 = load ptr, ptr %16, align 8
  store ptr %17, ptr %14, align 8
  %18 = getelementptr inbounds %"class.ResourceArea::SavedState", ptr %5, i32 0, i32 3
  %19 = load ptr, ptr %4, align 8
  %20 = call noundef i64 @_ZNK5Arena13size_in_bytesEv(ptr noundef nonnull align 8 dereferenceable(48) %19)
  store i64 %20, ptr %18, align 8
  ret void
}

; Function Attrs: mustprogress nounwind uwtable
define linkonce_odr hidden void @_ZN12ResourceArea16deactivate_stateERKNS_10SavedStateE(ptr noundef nonnull align 8 dereferenceable(48) %0, ptr noundef nonnull align 8 dereferenceable(32) %1) #1 comdat align 2 {
  %3 = alloca ptr, align 8
  %4 = alloca ptr, align 8
  store ptr %0, ptr %3, align 8
  store ptr %1, ptr %4, align 8
  ret void
}

; Function Attrs: mustprogress nounwind uwtable
define linkonce_odr hidden void @_ZNK16ResourceMarkImpl13reset_to_markEv(ptr noundef nonnull align 8 dereferenceable(40) %0) #1 comdat align 2 {
  %2 = alloca ptr, align 8
  store ptr %0, ptr %2, align 8
  %3 = load ptr, ptr %2, align 8
  %4 = getelementptr inbounds %class.ResourceMarkImpl, ptr %3, i32 0, i32 0
  %5 = load ptr, ptr %4, align 8
  %6 = getelementptr inbounds %class.ResourceMarkImpl, ptr %3, i32 0, i32 1
  call void @_ZN12ResourceArea11rollback_toERKNS_10SavedStateE(ptr noundef nonnull align 8 dereferenceable(48) %5, ptr noundef nonnull align 8 dereferenceable(32) %6)
  ret void
}

; Function Attrs: mustprogress nounwind uwtable
define linkonce_odr hidden noundef ptr @_ZNK6Symbol4baseEv(ptr noundef nonnull align 4 dereferenceable(8) %0) #1 comdat align 2 {
  %2 = alloca ptr, align 8
  store ptr %0, ptr %2, align 8
  %3 = load ptr, ptr %2, align 8
  %4 = getelementptr inbounds %class.Symbol, ptr %3, i32 0, i32 2
  %5 = getelementptr inbounds [2 x i8], ptr %4, i64 0, i64 0
  ret ptr %5
}

; Function Attrs: mustprogress nounwind uwtable
define linkonce_odr hidden void @_ZN16ResourceMarkImplC2EP12ResourceArea(ptr noundef nonnull align 8 dereferenceable(40) %0, ptr noundef %1) unnamed_addr #1 comdat align 2 {
  %3 = alloca ptr, align 8
  %4 = alloca ptr, align 8
  store ptr %0, ptr %3, align 8
  store ptr %1, ptr %4, align 8
  %5 = load ptr, ptr %3, align 8
  %6 = getelementptr inbounds %class.ResourceMarkImpl, ptr %5, i32 0, i32 0
  %7 = load ptr, ptr %4, align 8
  store ptr %7, ptr %6, align 8
  %8 = getelementptr inbounds %class.ResourceMarkImpl, ptr %5, i32 0, i32 1
  %9 = load ptr, ptr %4, align 8
  call void @_ZN12ResourceArea10SavedStateC2EPS_(ptr noundef nonnull align 8 dereferenceable(32) %8, ptr noundef %9)
  %10 = getelementptr inbounds %class.ResourceMarkImpl, ptr %5, i32 0, i32 0
  %11 = load ptr, ptr %10, align 8
  %12 = getelementptr inbounds %class.ResourceMarkImpl, ptr %5, i32 0, i32 1
  call void @_ZN12ResourceArea14activate_stateERKNS_10SavedStateE(ptr noundef nonnull align 8 dereferenceable(48) %11, ptr noundef nonnull align 8 dereferenceable(32) %12)
  ret void
}

; Function Attrs: mustprogress nounwind uwtable
define linkonce_odr hidden void @_ZN16ResourceMarkImplD2Ev(ptr noundef nonnull align 8 dereferenceable(40) %0) unnamed_addr #1 comdat align 2 {
  %2 = alloca ptr, align 8
  store ptr %0, ptr %2, align 8
  %3 = load ptr, ptr %2, align 8
  call void @_ZNK16ResourceMarkImpl13reset_to_markEv(ptr noundef nonnull align 8 dereferenceable(40) %3)
  %4 = getelementptr inbounds %class.ResourceMarkImpl, ptr %3, i32 0, i32 0
  %5 = load ptr, ptr %4, align 8
  %6 = getelementptr inbounds %class.ResourceMarkImpl, ptr %3, i32 0, i32 1
  call void @_ZN12ResourceArea16deactivate_stateERKNS_10SavedStateE(ptr noundef nonnull align 8 dereferenceable(48) %5, ptr noundef nonnull align 8 dereferenceable(32) %6)
  ret void
}

; Function Attrs: mustprogress nounwind uwtable
define linkonce_odr hidden noundef zeroext i1 @_ZN9Signature12has_envelopeEc(i8 noundef signext %0) #1 comdat align 2 {
  %2 = alloca i8, align 1
  store i8 %0, ptr %2, align 1
  %3 = load i8, ptr %2, align 1
  %4 = sext i8 %3 to i32
  %5 = icmp eq i32 %4, 76
  ret i1 %5
}

; Function Attrs: mustprogress nounwind uwtable
define linkonce_odr hidden noundef signext i8 @_ZNK6Symbol7char_atEi(ptr noundef nonnull align 4 dereferenceable(8) %0, i32 noundef %1) #1 comdat align 2 {
  %3 = alloca ptr, align 8
  %4 = alloca i32, align 4
  store ptr %0, ptr %3, align 8
  store i32 %1, ptr %4, align 4
  %5 = load ptr, ptr %3, align 8
  %6 = call noundef ptr @_ZNK6Symbol4baseEv(ptr noundef nonnull align 4 dereferenceable(8) %5)
  %7 = load i32, ptr %4, align 4
  %8 = sext i32 %7 to i64
  %9 = getelementptr inbounds i8, ptr %6, i64 %8
  %10 = load i8, ptr %9, align 1
  ret i8 %10
}

; Function Attrs: mustprogress nounwind uwtable
define linkonce_odr hidden void @_ZN12ResourceMarkC2EP12ResourceAreaP6Thread(ptr noundef nonnull align 8 dereferenceable(40) %0, ptr noundef %1, ptr noundef %2) unnamed_addr #1 comdat align 2 {
  %4 = alloca ptr, align 8
  %5 = alloca ptr, align 8
  %6 = alloca ptr, align 8
  store ptr %0, ptr %4, align 8
  store ptr %1, ptr %5, align 8
  store ptr %2, ptr %6, align 8
  %7 = load ptr, ptr %4, align 8
  %8 = getelementptr inbounds %class.ResourceMark, ptr %7, i32 0, i32 0
  %9 = load ptr, ptr %5, align 8
  call void @_ZN16ResourceMarkImplC2EP12ResourceArea(ptr noundef nonnull align 8 dereferenceable(40) %8, ptr noundef %9)
  ret void
}

; Function Attrs: mustprogress nounwind uwtable
define linkonce_odr hidden noundef ptr @_ZNK6Thread13resource_areaEv(ptr noundef nonnull align 8 dereferenceable(888) %0) #1 comdat align 2 {
  %2 = alloca ptr, align 8
  store ptr %0, ptr %2, align 8
  %3 = load ptr, ptr %2, align 8
  %4 = getelementptr inbounds %class.Thread, ptr %3, i32 0, i32 16
  %5 = load ptr, ptr %4, align 8
  ret ptr %5
}

; Function Attrs: mustprogress nounwind uwtable
define linkonce_odr hidden void @_ZN12ResourceMarkD2Ev(ptr noundef nonnull align 8 dereferenceable(40) %0) unnamed_addr #1 comdat align 2 {
  %2 = alloca ptr, align 8
  store ptr %0, ptr %2, align 8
  %3 = load ptr, ptr %2, align 8
  %4 = getelementptr inbounds %class.ResourceMark, ptr %3, i32 0, i32 0
  call void @_ZN16ResourceMarkImplD2Ev(ptr noundef nonnull align 8 dereferenceable(40) %4) #9
  ret void
}

; Function Attrs: mustprogress nounwind uwtable
define linkonce_odr hidden noundef ptr @_ZN8Universe14typeArrayKlassE9BasicType(i8 noundef zeroext %0) #1 comdat align 2 {
  %2 = alloca i8, align 1
  store i8 %0, ptr %2, align 1
  %3 = load i8, ptr %2, align 1
  %4 = zext i8 %3 to i64
  %5 = getelementptr inbounds [12 x ptr], ptr @_ZN8Universe17_typeArrayKlassesE, i64 0, i64 %4
  %6 = load ptr, ptr %5, align 8
  ret ptr %6
}

; Function Attrs: mustprogress nounwind uwtable
define linkonce_odr hidden noundef zeroext i1 @_ZNK12ThreadShadow21has_pending_exceptionEv(ptr noundef nonnull align 8 dereferenceable(28) %0) #1 comdat align 2 {
  %2 = alloca ptr, align 8
  store ptr %0, ptr %2, align 8
  %3 = load ptr, ptr %2, align 8
  %4 = getelementptr inbounds %class.ThreadShadow, ptr %3, i32 0, i32 1
  %5 = load ptr, ptr %4, align 8
  %6 = icmp ne ptr %5, null
  ret i1 %6
}

; Function Attrs: mustprogress nounwind uwtable
define linkonce_odr hidden noundef ptr @_ZN15SignatureStream9as_symbolEv(ptr noundef nonnull align 8 dereferenceable(48) %0) #1 comdat align 2 {
  %2 = alloca ptr, align 8
  store ptr %0, ptr %2, align 8
  %3 = load ptr, ptr %2, align 8
  %4 = call noundef ptr @_ZN15SignatureStream11find_symbolEv(ptr noundef nonnull align 8 dereferenceable(48) %3)
  ret ptr %4
}

; Function Attrs: mustprogress nounwind uwtable
define linkonce_odr hidden noundef zeroext i1 @_ZNK15SignatureStream12has_envelopeEv(ptr noundef nonnull align 8 dereferenceable(48) %0) #1 comdat align 2 {
  %2 = alloca i1, align 1
  %3 = alloca ptr, align 8
  store ptr %0, ptr %3, align 8
  %4 = load ptr, ptr %3, align 8
  %5 = getelementptr inbounds %class.SignatureStream, ptr %4, i32 0, i32 0
  %6 = load ptr, ptr %5, align 8
  %7 = getelementptr inbounds %class.SignatureStream, ptr %4, i32 0, i32 1
  %8 = load i32, ptr %7, align 8
  %9 = call noundef signext i8 @_ZNK6Symbol7char_atEi(ptr noundef nonnull align 4 dereferenceable(8) %6, i32 noundef %8)
  %10 = call noundef zeroext i1 @_ZN9Signature12has_envelopeEc(i8 noundef signext %9)
  br i1 %10, label %12, label %11

11:                                               ; preds = %1
  store i1 false, ptr %2, align 1
  br label %13

12:                                               ; preds = %1
  store i1 true, ptr %2, align 1
  br label %13

13:                                               ; preds = %12, %11
  %14 = load i1, ptr %2, align 1
  ret i1 %14
}

; Function Attrs: mustprogress nounwind uwtable
define linkonce_odr hidden noundef zeroext i8 @_ZNK15SignatureStream4typeEv(ptr noundef nonnull align 8 dereferenceable(48) %0) #1 comdat align 2 {
  %2 = alloca ptr, align 8
  store ptr %0, ptr %2, align 8
  %3 = load ptr, ptr %2, align 8
  %4 = getelementptr inbounds %class.SignatureStream, ptr %3, i32 0, i32 5
  %5 = load i8, ptr %4, align 8
  ret i8 %5
}

; Function Attrs: mustprogress nounwind uwtable
define linkonce_odr hidden noundef i32 @_ZN15SignatureStream17skip_array_prefixEv(ptr noundef nonnull align 8 dereferenceable(48) %0) #1 comdat align 2 {
  %2 = alloca i32, align 4
  %3 = alloca ptr, align 8
  store ptr %0, ptr %3, align 8
  %4 = load ptr, ptr %3, align 8
  %5 = getelementptr inbounds %class.SignatureStream, ptr %4, i32 0, i32 5
  %6 = load i8, ptr %5, align 8
  %7 = zext i8 %6 to i32
  %8 = icmp ne i32 %7, 13
  br i1 %8, label %9, label %10

9:                                                ; preds = %1
  store i32 0, ptr %2, align 4
  br label %12

10:                                               ; preds = %1
  %11 = call noundef i32 @_ZN15SignatureStream23skip_whole_array_prefixEv(ptr noundef nonnull align 8 dereferenceable(48) %4)
  store i32 %11, ptr %2, align 4
  br label %12

12:                                               ; preds = %10, %9
  %13 = load i32, ptr %2, align 4
  ret i32 %13
}

; Function Attrs: mustprogress nounwind uwtable
define linkonce_odr hidden void @_ZN12ResourceMarkC2EP6Thread(ptr noundef nonnull align 8 dereferenceable(40) %0, ptr noundef %1) unnamed_addr #1 comdat align 2 {
  %3 = alloca ptr, align 8
  %4 = alloca ptr, align 8
  store ptr %0, ptr %3, align 8
  store ptr %1, ptr %4, align 8
  %5 = load ptr, ptr %3, align 8
  %6 = load ptr, ptr %4, align 8
  %7 = call noundef ptr @_ZNK6Thread13resource_areaEv(ptr noundef nonnull align 8 dereferenceable(888) %6)
  %8 = load ptr, ptr %4, align 8
  call void @_ZN12ResourceMarkC2EP12ResourceAreaP6Thread(ptr noundef nonnull align 8 dereferenceable(40) %5, ptr noundef %7, ptr noundef %8)
  ret void
}

; Function Attrs: mustprogress nounwind uwtable
define hidden noundef ptr @_ZN16SystemDictionary27resolve_array_class_or_nullEP6Symbol6HandleS2_P10JavaThread(ptr noundef %0, ptr %1, ptr %2, ptr noundef %3) #1 align 2 {
  %5 = alloca ptr, align 8
  %6 = alloca %class.Handle, align 8
  %7 = alloca %class.Handle, align 8
  %8 = alloca ptr, align 8
  %9 = alloca ptr, align 8
  %10 = alloca %class.ResourceMark, align 8
  %11 = alloca %class.SignatureStream, align 8
  %12 = alloca i32, align 4
  %13 = alloca ptr, align 8
  %14 = alloca i8, align 1
  %15 = alloca ptr, align 8
  %16 = alloca %class.Handle, align 8
  %17 = alloca %class.Handle, align 8
  %18 = alloca i32, align 4
  %19 = getelementptr inbounds %class.Handle, ptr %6, i32 0, i32 0
  store ptr %1, ptr %19, align 8
  %20 = getelementptr inbounds %class.Handle, ptr %7, i32 0, i32 0
  store ptr %2, ptr %20, align 8
  store ptr %0, ptr %8, align 8
  store ptr %3, ptr %9, align 8
  %21 = load ptr, ptr %9, align 8
  call void @_ZN12ResourceMarkC2EP6Thread(ptr noundef nonnull align 8 dereferenceable(40) %10, ptr noundef %21)
  %22 = load ptr, ptr %8, align 8
  call void @_ZN15SignatureStreamC1EPK6Symbolb(ptr noundef nonnull align 8 dereferenceable(48) %11, ptr noundef %22, i1 noundef zeroext false)
  %23 = call noundef i32 @_ZN15SignatureStream17skip_array_prefixEv(ptr noundef nonnull align 8 dereferenceable(48) %11)
  store i32 %23, ptr %12, align 4
  store ptr null, ptr %13, align 8
  %24 = call noundef zeroext i8 @_ZNK15SignatureStream4typeEv(ptr noundef nonnull align 8 dereferenceable(48) %11)
  store i8 %24, ptr %14, align 1
  %25 = call noundef zeroext i1 @_ZNK15SignatureStream12has_envelopeEv(ptr noundef nonnull align 8 dereferenceable(48) %11)
  br i1 %25, label %26, label %54

26:                                               ; preds = %4
  %27 = call noundef ptr @_ZN15SignatureStream9as_symbolEv(ptr noundef nonnull align 8 dereferenceable(48) %11)
  store ptr %27, ptr %15, align 8
  %28 = load ptr, ptr %15, align 8
  call void @llvm.memcpy.p0.p0.i64(ptr align 8 %16, ptr align 8 %6, i64 8, i1 false)
  call void @llvm.memcpy.p0.p0.i64(ptr align 8 %17, ptr align 8 %7, i64 8, i1 false)
  %29 = load ptr, ptr %9, align 8
  %30 = getelementptr inbounds %class.Handle, ptr %16, i32 0, i32 0
  %31 = load ptr, ptr %30, align 8
  %32 = getelementptr inbounds %class.Handle, ptr %17, i32 0, i32 0
  %33 = load ptr, ptr %32, align 8
  %34 = call noundef ptr @_ZN16SystemDictionary30resolve_instance_class_or_nullEP6Symbol6HandleS2_P10JavaThread(ptr noundef %28, ptr %31, ptr %33, ptr noundef %29)
  store ptr %34, ptr %13, align 8
  %35 = load ptr, ptr %9, align 8
  %36 = call noundef zeroext i1 @_ZNK12ThreadShadow21has_pending_exceptionEv(ptr noundef nonnull align 8 dereferenceable(28) %35)
  br i1 %36, label %37, label %38

37:                                               ; preds = %26
  store ptr null, ptr %5, align 8
  store i32 1, ptr %18, align 4
  br label %70

38:                                               ; preds = %26
  %39 = load ptr, ptr %13, align 8
  %40 = icmp ne ptr %39, null
  br i1 %40, label %41, label %53

41:                                               ; preds = %38
  %42 = load ptr, ptr %13, align 8
  %43 = load i32, ptr %12, align 4
  %44 = load ptr, ptr %9, align 8
  %45 = load ptr, ptr %42, align 8
  %46 = getelementptr inbounds ptr, ptr %45, i64 25
  %47 = load ptr, ptr %46, align 8
  %48 = call noundef ptr %47(ptr noundef nonnull align 8 dereferenceable(196) %42, i32 noundef %43, ptr noundef %44)
  store ptr %48, ptr %13, align 8
  %49 = load ptr, ptr %9, align 8
  %50 = call noundef zeroext i1 @_ZNK12ThreadShadow21has_pending_exceptionEv(ptr noundef nonnull align 8 dereferenceable(28) %49)
  br i1 %50, label %51, label %52

51:                                               ; preds = %41
  store ptr null, ptr %5, align 8
  store i32 1, ptr %18, align 4
  br label %70

52:                                               ; preds = %41
  br label %53

53:                                               ; preds = %52, %38
  br label %68

54:                                               ; preds = %4
  %55 = load i8, ptr %14, align 1
  %56 = call noundef ptr @_ZN8Universe14typeArrayKlassE9BasicType(i8 noundef zeroext %55)
  store ptr %56, ptr %13, align 8
  %57 = load ptr, ptr %13, align 8
  %58 = load i32, ptr %12, align 4
  %59 = load ptr, ptr %9, align 8
  %60 = load ptr, ptr %57, align 8
  %61 = getelementptr inbounds ptr, ptr %60, i64 25
  %62 = load ptr, ptr %61, align 8
  %63 = call noundef ptr %62(ptr noundef nonnull align 8 dereferenceable(196) %57, i32 noundef %58, ptr noundef %59)
  store ptr %63, ptr %13, align 8
  %64 = load ptr, ptr %9, align 8
  %65 = call noundef zeroext i1 @_ZNK12ThreadShadow21has_pending_exceptionEv(ptr noundef nonnull align 8 dereferenceable(28) %64)
  br i1 %65, label %66, label %67

66:                                               ; preds = %54
  store ptr null, ptr %5, align 8
  store i32 1, ptr %18, align 4
  br label %70

67:                                               ; preds = %54
  br label %68

68:                                               ; preds = %67, %53
  %69 = load ptr, ptr %13, align 8
  store ptr %69, ptr %5, align 8
  store i32 1, ptr %18, align 4
  br label %70

70:                                               ; preds = %68, %66, %51, %37
  call void @_ZN15SignatureStreamD1Ev(ptr noundef nonnull align 8 dereferenceable(48) %11) #9
  call void @_ZN12ResourceMarkD2Ev(ptr noundef nonnull align 8 dereferenceable(40) %10) #9
  %71 = load ptr, ptr %5, align 8
  ret ptr %71
}