; Function Attrs: mustprogress nounwind uwtable
define hidden noundef ptr @_ZN16SystemDictionary27resolve_array_class_or_nullEP6Symbol6HandleS2_P10JavaThread(ptr noundef %0, ptr %1, ptr %2, ptr noundef %3) local_unnamed_addr #0 align 2 {
  %5 = alloca %class.SignatureStream, align 8
  %6 = getelementptr inbounds i8, ptr %3, i64 800
  %7 = load ptr, ptr %6, align 8
  %8 = getelementptr inbounds i8, ptr %7, i64 24
  %9 = load ptr, ptr %8, align 8
  %10 = getelementptr inbounds i8, ptr %7, i64 32
  %11 = load ptr, ptr %10, align 8
  %12 = getelementptr inbounds i8, ptr %7, i64 40
  %13 = load ptr, ptr %12, align 8
  %14 = getelementptr inbounds i8, ptr %7, i64 8
  %15 = load i64, ptr %14, align 8
  call void @_ZN15SignatureStreamC1EPK6Symbolb(ptr noundef nonnull align 8 dereferenceable(48) %5, ptr noundef %0, i1 noundef zeroext false) #14
  %16 = getelementptr inbounds i8, ptr %5, i64 24
  %17 = load i8, ptr %16, align 8
  %.not.i = icmp eq i8 %17, 13
  br i1 %.not.i, label %18, label %_ZN15SignatureStream17skip_array_prefixEv.exit

18:                                               ; preds = %4
  %19 = call noundef i32 @_ZN15SignatureStream23skip_whole_array_prefixEv(ptr noundef nonnull align 8 dereferenceable(48) %5) #14
  br label %_ZN15SignatureStream17skip_array_prefixEv.exit

_ZN15SignatureStream17skip_array_prefixEv.exit:   ; preds = %4, %18
  %.0.i = phi i32 [ %19, %18 ], [ 0, %4 ]
  %20 = load ptr, ptr %5, align 8
  %21 = getelementptr inbounds i8, ptr %5, i64 8
  %22 = load i32, ptr %21, align 8
  %23 = getelementptr inbounds i8, ptr %20, i64 6
  %24 = sext i32 %22 to i64
  %25 = getelementptr inbounds i8, ptr %23, i64 %24
  %26 = load i8, ptr %25, align 1
  %27 = icmp eq i8 %26, 76
  br i1 %27, label %28, label %40

28:                                               ; preds = %_ZN15SignatureStream17skip_array_prefixEv.exit
  %29 = call noundef ptr @_ZN15SignatureStream11find_symbolEv(ptr noundef nonnull align 8 dereferenceable(48) %5) #14
  %30 = call noundef ptr @_ZN16SystemDictionary30resolve_instance_class_or_nullEP6Symbol6HandleS2_P10JavaThread(ptr noundef %29, ptr %1, ptr %2, ptr noundef nonnull %3)
  %31 = getelementptr inbounds i8, ptr %3, i64 8
  %32 = load ptr, ptr %31, align 8
  %.not25 = icmp eq ptr %32, null
  br i1 %.not25, label %33, label %52

33:                                               ; preds = %28
  %.not = icmp eq ptr %30, null
  br i1 %.not, label %51, label %34

34:                                               ; preds = %33
  %35 = load ptr, ptr %30, align 8
  %36 = getelementptr inbounds i8, ptr %35, i64 200
  %37 = load ptr, ptr %36, align 8
  %38 = call noundef ptr %37(ptr noundef nonnull align 8 dereferenceable(196) %30, i32 noundef %.0.i, ptr noundef nonnull %3) #14
  %39 = load ptr, ptr %31, align 8
  %.not26 = icmp eq ptr %39, null
  br i1 %.not26, label %51, label %52

40:                                               ; preds = %_ZN15SignatureStream17skip_array_prefixEv.exit
  %41 = load i8, ptr %16, align 8
  %42 = zext i8 %41 to i64
  %43 = getelementptr inbounds [12 x ptr], ptr @_ZN8Universe17_typeArrayKlassesE, i64 0, i64 %42
  %44 = load ptr, ptr %43, align 8
  %45 = load ptr, ptr %44, align 8
  %46 = getelementptr inbounds i8, ptr %45, i64 200
  %47 = load ptr, ptr %46, align 8
  %48 = call noundef ptr %47(ptr noundef nonnull align 8 dereferenceable(196) %44, i32 noundef %.0.i, ptr noundef nonnull %3) #14
  %49 = getelementptr inbounds i8, ptr %3, i64 8
  %50 = load ptr, ptr %49, align 8
  %.not24 = icmp eq ptr %50, null
  br i1 %.not24, label %51, label %52

51:                                               ; preds = %40, %33, %34
  %.019 = phi ptr [ %38, %34 ], [ null, %33 ], [ %48, %40 ]
  br label %52

52:                                               ; preds = %40, %34, %28, %51
  %.0 = phi ptr [ %.019, %51 ], [ null, %28 ], [ null, %34 ], [ null, %40 ]
  call void @_ZN15SignatureStreamD1Ev(ptr noundef nonnull align 8 dereferenceable(48) %5) #14
  %53 = load ptr, ptr %9, align 8
  %.not.i.i.i.i = icmp eq ptr %53, null
  br i1 %.not.i.i.i.i, label %55, label %54

54:                                               ; preds = %52
  call void @_ZN5Arena17set_size_in_bytesEm(ptr noundef nonnull align 8 dereferenceable(48) %7, i64 noundef %15) #14
  call void @_ZN5Chunk9next_chopEPS_(ptr noundef nonnull %9) #14
  br label %55

55:                                               ; preds = %54, %52
  %56 = load ptr, ptr %10, align 8
  %.not8.i.i.i.i = icmp eq ptr %56, %11
  br i1 %.not8.i.i.i.i, label %_ZN12ResourceMarkD2Ev.exit, label %57

57:                                               ; preds = %55
  store ptr %9, ptr %8, align 8
  store ptr %11, ptr %10, align 8
  store ptr %13, ptr %12, align 8
  br label %_ZN12ResourceMarkD2Ev.exit

_ZN12ResourceMarkD2Ev.exit:                       ; preds = %55, %57
  ret ptr %.0
}